target datalayout = "e-m:e-p270:32:32-p271:32:32-p272:64:64-i64:64-i128:128-f80:128-n8:16:32:64-S128"
target triple = "x86_64-pc-linux-gnu"

%struct.curl_version_info_data = type { i32, ptr, i32, ptr, i32, ptr, i64, ptr, ptr, ptr, i32, ptr, i32, ptr, i32, ptr, i32, ptr, ptr, ptr, ptr, i32, ptr, ptr, ptr, ptr, ptr }

@ssl_backend.ssl_ver = internal global [80 x i8] c"no ssl\00\00\00\00\00\00\00\00\00\00\00\00\00\00\00\00\00\00\00\00\00\00\00\00\00\00\00\00\00\00\00\00\00\00\00\00\00\00\00\00\00\00\00\00\00\00\00\00\00\00\00\00\00\00\00\00\00\00\00\00\00\00\00\00\00\00\00\00\00\00\00\00\00\00", align 16
@ssl_backend.already = internal global i8 0, align 1
@.str.249 = private unnamed_addr constant [5 x i8] c"%.*s\00", align 1
@.str.250 = private unnamed_addr constant [2 x i8] c" \00", align 1

; Function Attrs: nounwind uwtable
define internal ptr @ssl_backend() #0 {
  %1 = alloca ptr, align 8
  %2 = load i8, ptr @ssl_backend.already, align 1, !tbaa !43, !range !44, !noundef !45
  %3 = trunc i8 %2 to i1
  br i1 %3, label %17, label %4

4:                                                ; preds = %0
  call void @llvm.lifetime.start.p0(i64 8, ptr %1) #10
  %5 = call ptr @curl_version_info(i32 noundef 11)
  %6 = getelementptr inbounds nuw %struct.curl_version_info_data, ptr %5, i32 0, i32 5
  %7 = load ptr, ptr %6, align 8, !tbaa !405
  store ptr %7, ptr %1, align 8, !tbaa !24
  %8 = load ptr, ptr %1, align 8, !tbaa !24
  %9 = icmp ne ptr %8, null
  br i1 %9, label %10, label %16

10:                                               ; preds = %4
  %11 = load ptr, ptr %1, align 8, !tbaa !24
  %12 = call i64 @strcspn(ptr noundef %11, ptr noundef @.str.250) #11
  %13 = trunc i64 %12 to i32
  %14 = load ptr, ptr %1, align 8, !tbaa !24
  %15 = call i32 (ptr, i64, ptr, ...) @curl_msnprintf(ptr noundef @ssl_backend.ssl_ver, i64 noundef 80, ptr noundef @.str.249, i32 noundef %13, ptr noundef %14)
  br label %16

16:                                               ; preds = %10, %4
  store i8 1, ptr @ssl_backend.already, align 1, !tbaa !43
  call void @llvm.lifetime.end.p0(i64 8, ptr %1) #10
  br label %17

17:                                               ; preds = %16, %0
  ret ptr @ssl_backend.ssl_ver
}