; Function Attrs: nounwind uwtable
define internal fastcc void @ssl_backend() unnamed_addr #0 {
  %.b3 = load i1, ptr @ssl_backend.already, align 1
  br i1 %.b3, label %10, label %1

1:                                                ; preds = %0
  %2 = tail call ptr @curl_version_info(i32 noundef 11) #16
  %3 = getelementptr inbounds nuw i8, ptr %2, i64 40
  %4 = load ptr, ptr %3, align 8, !tbaa !378
  %.not = icmp eq ptr %4, null
  br i1 %.not, label %9, label %5

5:                                                ; preds = %1
  %6 = tail call i64 @strcspn(ptr noundef nonnull %4, ptr noundef nonnull @.str.250) #17
  %7 = trunc i64 %6 to i32
  %8 = tail call i32 (ptr, i64, ptr, ...) @curl_msnprintf(ptr noundef nonnull @ssl_backend.ssl_ver, i64 noundef 80, ptr noundef nonnull @.str.249, i32 noundef %7, ptr noundef nonnull %4) #16
  br label %9

9:                                                ; preds = %5, %1
  store i1 true, ptr @ssl_backend.already, align 1
  br label %10

10:                                               ; preds = %9, %0
  ret void
}